target datalayout = "e-m:e-p270:32:32-p271:32:32-p272:64:64-i64:64-i128:128-f80:128-n8:16:32:64-S128"
target triple = "x86_64-pc-linux-gnu"

%struct.ForEachState = type { ptr, i32 }
%struct.List = type { i32, i32, i32, ptr, [0 x %union.ListCell] }
%union.ListCell = type { ptr }
%struct.ExplainState = type { ptr, i8, i8, i8, i8, i8, i8, i8, i8, i8, i8, i32, i32, i32, ptr, ptr, ptr, ptr, ptr, ptr, i8, i32, ptr }

@.str.48 = private unnamed_addr constant [3 x i8] c", \00", align 1
@.str.53 = private unnamed_addr constant [4 x i8] c"- [\00", align 1

; Function Attrs: inlinehint nounwind uwtable
define internal ptr @list_nth_cell(ptr noundef %0, i32 noundef %1) #6 {
  %3 = alloca ptr, align 8
  %4 = alloca i32, align 4
  store ptr %0, ptr %3, align 8
  store i32 %1, ptr %4, align 4
  %5 = load ptr, ptr %3, align 8
  %6 = getelementptr inbounds nuw %struct.List, ptr %5, i32 0, i32 3
  %7 = load ptr, ptr %6, align 8
  %8 = load i32, ptr %4, align 4
  %9 = sext i32 %8 to i64
  %10 = getelementptr inbounds %union.ListCell, ptr %7, i64 %9
  ret ptr %10
}

; Function Attrs: nounwind uwtable
define internal void @escape_yaml(ptr noundef %0, ptr noundef %1) #0 {
  %3 = alloca ptr, align 8
  %4 = alloca ptr, align 8
  store ptr %0, ptr %3, align 8
  store ptr %1, ptr %4, align 8
  %5 = load ptr, ptr %3, align 8
  %6 = load ptr, ptr %4, align 8
  call void @escape_json(ptr noundef %5, ptr noundef %6)
  ret void
}

; Function Attrs: nounwind uwtable
define internal void @ExplainYAMLLineStarting(ptr noundef %0) #0 {
  %2 = alloca ptr, align 8
  store ptr %0, ptr %2, align 8
  %3 = load ptr, ptr %2, align 8
  %4 = getelementptr inbounds nuw %struct.ExplainState, ptr %3, i32 0, i32 14
  %5 = load ptr, ptr %4, align 8
  %6 = call ptr @list_nth_cell(ptr noundef %5, i32 noundef 0)
  %7 = load i32, ptr %6, align 8
  %8 = icmp eq i32 %7, 0
  br i1 %8, label %9, label %14

9:                                                ; preds = %1
  %10 = load ptr, ptr %2, align 8
  %11 = getelementptr inbounds nuw %struct.ExplainState, ptr %10, i32 0, i32 14
  %12 = load ptr, ptr %11, align 8
  %13 = call ptr @list_nth_cell(ptr noundef %12, i32 noundef 0)
  store i32 1, ptr %13, align 8
  br label %25

14:                                               ; preds = %1
  %15 = load ptr, ptr %2, align 8
  %16 = getelementptr inbounds nuw %struct.ExplainState, ptr %15, i32 0, i32 0
  %17 = load ptr, ptr %16, align 8
  call void @appendStringInfoChar(ptr noundef %17, i8 noundef signext 10)
  %18 = load ptr, ptr %2, align 8
  %19 = getelementptr inbounds nuw %struct.ExplainState, ptr %18, i32 0, i32 0
  %20 = load ptr, ptr %19, align 8
  %21 = load ptr, ptr %2, align 8
  %22 = getelementptr inbounds nuw %struct.ExplainState, ptr %21, i32 0, i32 13
  %23 = load i32, ptr %22, align 4
  %24 = mul i32 %23, 2
  call void @appendStringInfoSpaces(ptr noundef %20, i32 noundef %24)
  br label %25

25:                                               ; preds = %14, %9
  ret void
}

; Function Attrs: nounwind uwtable
define internal void @ExplainJSONLineEnding(ptr noundef %0) #0 {
  %2 = alloca ptr, align 8
  store ptr %0, ptr %2, align 8
  %3 = load ptr, ptr %2, align 8
  %4 = getelementptr inbounds nuw %struct.ExplainState, ptr %3, i32 0, i32 14
  %5 = load ptr, ptr %4, align 8
  %6 = call ptr @list_nth_cell(ptr noundef %5, i32 noundef 0)
  %7 = load i32, ptr %6, align 8
  %8 = icmp ne i32 %7, 0
  br i1 %8, label %9, label %13

9:                                                ; preds = %1
  %10 = load ptr, ptr %2, align 8
  %11 = getelementptr inbounds nuw %struct.ExplainState, ptr %10, i32 0, i32 0
  %12 = load ptr, ptr %11, align 8
  call void @appendStringInfoChar(ptr noundef %12, i8 noundef signext 44)
  br label %18

13:                                               ; preds = %1
  %14 = load ptr, ptr %2, align 8
  %15 = getelementptr inbounds nuw %struct.ExplainState, ptr %14, i32 0, i32 14
  %16 = load ptr, ptr %15, align 8
  %17 = call ptr @list_nth_cell(ptr noundef %16, i32 noundef 0)
  store i32 1, ptr %17, align 8
  br label %18

18:                                               ; preds = %13, %9
  %19 = load ptr, ptr %2, align 8
  %20 = getelementptr inbounds nuw %struct.ExplainState, ptr %19, i32 0, i32 0
  %21 = load ptr, ptr %20, align 8
  call void @appendStringInfoChar(ptr noundef %21, i8 noundef signext 10)
  ret void
}

; Function Attrs: nounwind uwtable
define dso_local void @ExplainPropertyListNested(ptr noundef %0, ptr noundef %1, ptr noundef %2) #0 {
  %4 = alloca ptr, align 8
  %5 = alloca ptr, align 8
  %6 = alloca ptr, align 8
  %7 = alloca ptr, align 8
  %8 = alloca i8, align 1
  %9 = alloca i32, align 4
  %10 = alloca %struct.ForEachState, align 8
  %11 = alloca %struct.ForEachState, align 8
  store ptr %0, ptr %4, align 8
  store ptr %1, ptr %5, align 8
  store ptr %2, ptr %6, align 8
  call void @llvm.lifetime.start.p0(i64 8, ptr %7) #10
  call void @llvm.lifetime.start.p0(i64 1, ptr %8) #10
  store i8 1, ptr %8, align 1
  %12 = load ptr, ptr %6, align 8
  %13 = getelementptr inbounds nuw %struct.ExplainState, ptr %12, i32 0, i32 12
  %14 = load i32, ptr %13, align 8
  switch i32 %14, label %138 [
    i32 0, label %15
    i32 1, label %15
    i32 2, label %19
    i32 3, label %82
  ]

15:                                               ; preds = %3, %3
  %16 = load ptr, ptr %4, align 8
  %17 = load ptr, ptr %5, align 8
  %18 = load ptr, ptr %6, align 8
  call void @ExplainPropertyList(ptr noundef %16, ptr noundef %17, ptr noundef %18)
  store i32 1, ptr %9, align 4
  br label %139

19:                                               ; preds = %3
  %20 = load ptr, ptr %6, align 8
  call void @ExplainJSONLineEnding(ptr noundef %20)
  %21 = load ptr, ptr %6, align 8
  %22 = getelementptr inbounds nuw %struct.ExplainState, ptr %21, i32 0, i32 0
  %23 = load ptr, ptr %22, align 8
  %24 = load ptr, ptr %6, align 8
  %25 = getelementptr inbounds nuw %struct.ExplainState, ptr %24, i32 0, i32 13
  %26 = load i32, ptr %25, align 4
  %27 = mul i32 %26, 2
  call void @appendStringInfoSpaces(ptr noundef %23, i32 noundef %27)
  %28 = load ptr, ptr %6, align 8
  %29 = getelementptr inbounds nuw %struct.ExplainState, ptr %28, i32 0, i32 0
  %30 = load ptr, ptr %29, align 8
  call void @appendStringInfoChar(ptr noundef %30, i8 noundef signext 91)
  call void @llvm.lifetime.start.p0(i64 16, ptr %10) #10
  %31 = getelementptr inbounds nuw %struct.ForEachState, ptr %10, i32 0, i32 0
  %32 = load ptr, ptr %5, align 8
  store ptr %32, ptr %31, align 8
  %33 = getelementptr inbounds nuw %struct.ForEachState, ptr %10, i32 0, i32 1
  store i32 0, ptr %33, align 8
  %34 = getelementptr i8, ptr %10, i64 12
  call void @llvm.memset.p0.i64(ptr align 4 %34, i8 0, i64 4, i1 false)
  br label %35

35:                                               ; preds = %74, %19
  %36 = getelementptr inbounds nuw %struct.ForEachState, ptr %10, i32 0, i32 0
  %37 = load ptr, ptr %36, align 8
  %38 = icmp ne ptr %37, null
  br i1 %38, label %39, label %56

39:                                               ; preds = %35
  %40 = getelementptr inbounds nuw %struct.ForEachState, ptr %10, i32 0, i32 1
  %41 = load i32, ptr %40, align 8
  %42 = getelementptr inbounds nuw %struct.ForEachState, ptr %10, i32 0, i32 0
  %43 = load ptr, ptr %42, align 8
  %44 = getelementptr inbounds nuw %struct.List, ptr %43, i32 0, i32 1
  %45 = load i32, ptr %44, align 4
  %46 = icmp slt i32 %41, %45
  br i1 %46, label %47, label %56

47:                                               ; preds = %39
  %48 = getelementptr inbounds nuw %struct.ForEachState, ptr %10, i32 0, i32 0
  %49 = load ptr, ptr %48, align 8
  %50 = getelementptr inbounds nuw %struct.List, ptr %49, i32 0, i32 3
  %51 = load ptr, ptr %50, align 8
  %52 = getelementptr inbounds nuw %struct.ForEachState, ptr %10, i32 0, i32 1
  %53 = load i32, ptr %52, align 8
  %54 = sext i32 %53 to i64
  %55 = getelementptr inbounds %union.ListCell, ptr %51, i64 %54
  store ptr %55, ptr %7, align 8
  br label %57

56:                                               ; preds = %39, %35
  store ptr null, ptr %7, align 8
  br label %57

57:                                               ; preds = %56, %47
  %58 = phi i32 [ 1, %47 ], [ 0, %56 ]
  %59 = icmp ne i32 %58, 0
  br i1 %59, label %61, label %60

60:                                               ; preds = %57
  store i32 3, ptr %9, align 4
  call void @llvm.lifetime.end.p0(i64 16, ptr %10) #10
  br label %78

61:                                               ; preds = %57
  %62 = load i8, ptr %8, align 1, !range !6, !noundef !7
  %63 = trunc i8 %62 to i1
  br i1 %63, label %68, label %64

64:                                               ; preds = %61
  %65 = load ptr, ptr %6, align 8
  %66 = getelementptr inbounds nuw %struct.ExplainState, ptr %65, i32 0, i32 0
  %67 = load ptr, ptr %66, align 8
  call void @appendStringInfoString(ptr noundef %67, ptr noundef @.str.48)
  br label %68

68:                                               ; preds = %64, %61
  %69 = load ptr, ptr %6, align 8
  %70 = getelementptr inbounds nuw %struct.ExplainState, ptr %69, i32 0, i32 0
  %71 = load ptr, ptr %70, align 8
  %72 = load ptr, ptr %7, align 8
  %73 = load ptr, ptr %72, align 8
  call void @escape_json(ptr noundef %71, ptr noundef %73)
  store i8 0, ptr %8, align 1
  br label %74

74:                                               ; preds = %68
  %75 = getelementptr inbounds nuw %struct.ForEachState, ptr %10, i32 0, i32 1
  %76 = load i32, ptr %75, align 8
  %77 = add i32 %76, 1
  store i32 %77, ptr %75, align 8
  br label %35, !llvm.loop !26

78:                                               ; preds = %60
  %79 = load ptr, ptr %6, align 8
  %80 = getelementptr inbounds nuw %struct.ExplainState, ptr %79, i32 0, i32 0
  %81 = load ptr, ptr %80, align 8
  call void @appendStringInfoChar(ptr noundef %81, i8 noundef signext 93)
  br label %138

82:                                               ; preds = %3
  %83 = load ptr, ptr %6, align 8
  call void @ExplainYAMLLineStarting(ptr noundef %83)
  %84 = load ptr, ptr %6, align 8
  %85 = getelementptr inbounds nuw %struct.ExplainState, ptr %84, i32 0, i32 0
  %86 = load ptr, ptr %85, align 8
  call void @appendStringInfoString(ptr noundef %86, ptr noundef @.str.53)
  call void @llvm.lifetime.start.p0(i64 16, ptr %11) #10
  %87 = getelementptr inbounds nuw %struct.ForEachState, ptr %11, i32 0, i32 0
  %88 = load ptr, ptr %5, align 8
  store ptr %88, ptr %87, align 8
  %89 = getelementptr inbounds nuw %struct.ForEachState, ptr %11, i32 0, i32 1
  store i32 0, ptr %89, align 8
  %90 = getelementptr i8, ptr %11, i64 12
  call void @llvm.memset.p0.i64(ptr align 4 %90, i8 0, i64 4, i1 false)
  br label %91

91:                                               ; preds = %130, %82
  %92 = getelementptr inbounds nuw %struct.ForEachState, ptr %11, i32 0, i32 0
  %93 = load ptr, ptr %92, align 8
  %94 = icmp ne ptr %93, null
  br i1 %94, label %95, label %112

95:                                               ; preds = %91
  %96 = getelementptr inbounds nuw %struct.ForEachState, ptr %11, i32 0, i32 1
  %97 = load i32, ptr %96, align 8
  %98 = getelementptr inbounds nuw %struct.ForEachState, ptr %11, i32 0, i32 0
  %99 = load ptr, ptr %98, align 8
  %100 = getelementptr inbounds nuw %struct.List, ptr %99, i32 0, i32 1
  %101 = load i32, ptr %100, align 4
  %102 = icmp slt i32 %97, %101
  br i1 %102, label %103, label %112

103:                                              ; preds = %95
  %104 = getelementptr inbounds nuw %struct.ForEachState, ptr %11, i32 0, i32 0
  %105 = load ptr, ptr %104, align 8
  %106 = getelementptr inbounds nuw %struct.List, ptr %105, i32 0, i32 3
  %107 = load ptr, ptr %106, align 8
  %108 = getelementptr inbounds nuw %struct.ForEachState, ptr %11, i32 0, i32 1
  %109 = load i32, ptr %108, align 8
  %110 = sext i32 %109 to i64
  %111 = getelementptr inbounds %union.ListCell, ptr %107, i64 %110
  store ptr %111, ptr %7, align 8
  br label %113

112:                                              ; preds = %95, %91
  store ptr null, ptr %7, align 8
  br label %113

113:                                              ; preds = %112, %103
  %114 = phi i32 [ 1, %103 ], [ 0, %112 ]
  %115 = icmp ne i32 %114, 0
  br i1 %115, label %117, label %116

116:                                              ; preds = %113
  store i32 6, ptr %9, align 4
  call void @llvm.lifetime.end.p0(i64 16, ptr %11) #10
  br label %134

117:                                              ; preds = %113
  %118 = load i8, ptr %8, align 1, !range !6, !noundef !7
  %119 = trunc i8 %118 to i1
  br i1 %119, label %124, label %120

120:                                              ; preds = %117
  %121 = load ptr, ptr %6, align 8
  %122 = getelementptr inbounds nuw %struct.ExplainState, ptr %121, i32 0, i32 0
  %123 = load ptr, ptr %122, align 8
  call void @appendStringInfoString(ptr noundef %123, ptr noundef @.str.48)
  br label %124

124:                                              ; preds = %120, %117
  %125 = load ptr, ptr %6, align 8
  %126 = getelementptr inbounds nuw %struct.ExplainState, ptr %125, i32 0, i32 0
  %127 = load ptr, ptr %126, align 8
  %128 = load ptr, ptr %7, align 8
  %129 = load ptr, ptr %128, align 8
  call void @escape_yaml(ptr noundef %127, ptr noundef %129)
  store i8 0, ptr %8, align 1
  br label %130

130:                                              ; preds = %124
  %131 = getelementptr inbounds nuw %struct.ForEachState, ptr %11, i32 0, i32 1
  %132 = load i32, ptr %131, align 8
  %133 = add i32 %132, 1
  store i32 %133, ptr %131, align 8
  br label %91, !llvm.loop !27

134:                                              ; preds = %116
  %135 = load ptr, ptr %6, align 8
  %136 = getelementptr inbounds nuw %struct.ExplainState, ptr %135, i32 0, i32 0
  %137 = load ptr, ptr %136, align 8
  call void @appendStringInfoChar(ptr noundef %137, i8 noundef signext 93)
  br label %138

138:                                              ; preds = %3, %134, %78
  store i32 0, ptr %9, align 4
  br label %139

139:                                              ; preds = %138, %15
  call void @llvm.lifetime.end.p0(i64 1, ptr %8) #10
  call void @llvm.lifetime.end.p0(i64 8, ptr %7) #10
  %140 = load i32, ptr %9, align 4
  switch i32 %140, label %142 [
    i32 0, label %141
    i32 1, label %141
  ]

141:                                              ; preds = %139, %139
  ret void

142:                                              ; preds = %139
  unreachable
}