; Function Attrs: nounwind uwtable
define dso_local void @ExplainPropertyListNested(ptr noundef %0, ptr noundef captures(address_is_null) %1, ptr noundef readonly captures(none) %2) local_unnamed_addr #0 {
  %4 = getelementptr inbounds nuw i8, ptr %2, i64 24
  %5 = load i32, ptr %4, align 8
  switch i32 %5, label %65 [
    i32 0, label %6
    i32 1, label %6
    i32 2, label %7
    i32 3, label %36
  ]

6:                                                ; preds = %3, %3
  tail call void @ExplainPropertyList(ptr noundef %0, ptr noundef %1, ptr noundef nonnull %2)
  br label %65

7:                                                ; preds = %3
  %8 = getelementptr inbounds nuw i8, ptr %2, i64 32
  %9 = load ptr, ptr %8, align 8
  %10 = getelementptr i8, ptr %9, i64 16
  %.val4.i = load ptr, ptr %10, align 8
  %11 = load i32, ptr %.val4.i, align 8
  %.not.i = icmp eq i32 %11, 0
  br i1 %.not.i, label %14, label %12

12:                                               ; preds = %7
  %13 = load ptr, ptr %2, align 8
  tail call void @appendStringInfoChar(ptr noundef %13, i8 noundef signext 44) #13
  br label %ExplainJSONLineEnding.exit

14:                                               ; preds = %7
  store i32 1, ptr %.val4.i, align 8
  br label %ExplainJSONLineEnding.exit

ExplainJSONLineEnding.exit:                       ; preds = %12, %14
  %15 = load ptr, ptr %2, align 8
  tail call void @appendStringInfoChar(ptr noundef %15, i8 noundef signext 10) #13
  %16 = load ptr, ptr %2, align 8
  %17 = getelementptr inbounds nuw i8, ptr %2, i64 28
  %18 = load i32, ptr %17, align 4
  %19 = shl i32 %18, 1
  tail call void @appendStringInfoSpaces(ptr noundef %16, i32 noundef %19) #13
  %20 = load ptr, ptr %2, align 8
  tail call void @appendStringInfoChar(ptr noundef %20, i8 noundef signext 91) #13
  %21 = getelementptr inbounds nuw i8, ptr %1, i64 4
  %.not37 = icmp eq ptr %1, null
  br i1 %.not37, label %._crit_edge54, label %.lr.ph53

.lr.ph53:                                         ; preds = %ExplainJSONLineEnding.exit
  %22 = getelementptr inbounds nuw i8, ptr %1, i64 16
  %23 = load i32, ptr %21, align 4
  %24 = icmp sgt i32 %23, 0
  br i1 %24, label %.lr.ph58, label %._crit_edge54

._crit_edge54:                                    ; preds = %30, %.lr.ph53, %ExplainJSONLineEnding.exit
  %25 = load ptr, ptr %2, align 8
  tail call void @appendStringInfoChar(ptr noundef %25, i8 noundef signext 93) #13
  br label %65

.lr.ph58:                                         ; preds = %.lr.ph53, %30
  %indvars.iv59 = phi i64 [ %indvars.iv.next60, %30 ], [ 0, %.lr.ph53 ]
  %.0325256 = phi i1 [ false, %30 ], [ true, %.lr.ph53 ]
  %26 = load ptr, ptr %22, align 8
  %27 = getelementptr inbounds nuw %union.ListCell, ptr %26, i64 %indvars.iv59
  br i1 %.0325256, label %30, label %28

28:                                               ; preds = %.lr.ph58
  %29 = load ptr, ptr %2, align 8
  tail call void @appendStringInfoString(ptr noundef %29, ptr noundef nonnull @.str.48) #13
  br label %30

30:                                               ; preds = %28, %.lr.ph58
  %31 = load ptr, ptr %2, align 8
  %32 = load ptr, ptr %27, align 8
  tail call void @escape_json(ptr noundef %31, ptr noundef %32) #13
  %indvars.iv.next60 = add nuw nsw i64 %indvars.iv59, 1
  %33 = load i32, ptr %21, align 4
  %34 = sext i32 %33 to i64
  %35 = icmp slt i64 %indvars.iv.next60, %34
  br i1 %35, label %.lr.ph58, label %._crit_edge54

36:                                               ; preds = %3
  %37 = getelementptr inbounds nuw i8, ptr %2, i64 32
  %38 = load ptr, ptr %37, align 8
  %39 = getelementptr i8, ptr %38, i64 16
  %.val5.i = load ptr, ptr %39, align 8
  %40 = load i32, ptr %.val5.i, align 8
  %41 = icmp eq i32 %40, 0
  br i1 %41, label %42, label %43

42:                                               ; preds = %36
  store i32 1, ptr %.val5.i, align 8
  br label %ExplainYAMLLineStarting.exit

43:                                               ; preds = %36
  %44 = load ptr, ptr %2, align 8
  tail call void @appendStringInfoChar(ptr noundef %44, i8 noundef signext 10) #13
  %45 = load ptr, ptr %2, align 8
  %46 = getelementptr inbounds nuw i8, ptr %2, i64 28
  %47 = load i32, ptr %46, align 4
  %48 = shl i32 %47, 1
  tail call void @appendStringInfoSpaces(ptr noundef %45, i32 noundef %48) #13
  br label %ExplainYAMLLineStarting.exit

ExplainYAMLLineStarting.exit:                     ; preds = %42, %43
  %49 = load ptr, ptr %2, align 8
  tail call void @appendStringInfoString(ptr noundef %49, ptr noundef nonnull @.str.53) #13
  %50 = getelementptr inbounds nuw i8, ptr %1, i64 4
  %.not = icmp eq ptr %1, null
  br i1 %.not, label %._crit_edge, label %.lr.ph

.lr.ph:                                           ; preds = %ExplainYAMLLineStarting.exit
  %51 = getelementptr inbounds nuw i8, ptr %1, i64 16
  %52 = load i32, ptr %50, align 4
  %53 = icmp sgt i32 %52, 0
  br i1 %53, label %.lr.ph50, label %._crit_edge

._crit_edge:                                      ; preds = %59, %.lr.ph, %ExplainYAMLLineStarting.exit
  %54 = load ptr, ptr %2, align 8
  tail call void @appendStringInfoChar(ptr noundef %54, i8 noundef signext 93) #13
  br label %65

.lr.ph50:                                         ; preds = %.lr.ph, %59
  %indvars.iv = phi i64 [ %indvars.iv.next, %59 ], [ 0, %.lr.ph ]
  %.1334549 = phi i1 [ false, %59 ], [ true, %.lr.ph ]
  %55 = load ptr, ptr %51, align 8
  %56 = getelementptr inbounds nuw %union.ListCell, ptr %55, i64 %indvars.iv
  br i1 %.1334549, label %59, label %57

57:                                               ; preds = %.lr.ph50
  %58 = load ptr, ptr %2, align 8
  tail call void @appendStringInfoString(ptr noundef %58, ptr noundef nonnull @.str.48) #13
  br label %59

59:                                               ; preds = %57, %.lr.ph50
  %60 = load ptr, ptr %2, align 8
  %61 = load ptr, ptr %56, align 8
  tail call void @escape_json(ptr noundef %60, ptr noundef %61) #13
  %indvars.iv.next = add nuw nsw i64 %indvars.iv, 1
  %62 = load i32, ptr %50, align 4
  %63 = sext i32 %62 to i64
  %64 = icmp slt i64 %indvars.iv.next, %63
  br i1 %64, label %.lr.ph50, label %._crit_edge

65:                                               ; preds = %3, %._crit_edge54, %._crit_edge, %6
  ret void
}